
try_me.o:     file format elf32-i386


Disassembly of section .text:

00000000 <test>:
   0:	55                   	push   %ebp
   1:	89 e5                	mov    %esp,%ebp
   3:	83 ec 58             	sub    $0x58,%esp
   6:	c7 45 d2 74 65 73 74 	movl   $0x74736574,-0x2e(%ebp)
   d:	c7 45 d6 5f 74 68 69 	movl   $0x6968745f,-0x2a(%ebp)
  14:	c7 45 da 73 5f 6f 66 	movl   $0x666f5f73,-0x26(%ebp)
  1b:	c7 45 de 66 73 65 74 	movl   $0x74657366,-0x22(%ebp)
  22:	c7 45 e2 5f 69 6d 70 	movl   $0x706d695f,-0x1e(%ebp)
  29:	c7 45 e6 61 63 74 5f 	movl   $0x5f746361,-0x1a(%ebp)
  30:	c7 45 ea 6c 6f 6e 67 	movl   $0x676e6f6c,-0x16(%ebp)
  37:	c7 45 ee 65 72 5f 6c 	movl   $0x6c5f7265,-0x12(%ebp)
  3e:	c7 45 f2 6f 6e 67 65 	movl   $0x65676e6f,-0xe(%ebp)
  45:	66 c7 45 f6 72 00    	movw   $0x72,-0xa(%ebp)
  4b:	c7 45 c8 67 67 34 6f 	movl   $0x6f346767,-0x38(%ebp)
  52:	c7 45 cc 6b 39 64 66 	movl   $0x6664396b,-0x34(%ebp)
  59:	66 c7 45 d0 6d 00    	movw   $0x6d,-0x30(%ebp)
  5f:	c7 45 b7 61 62 63 00 	movl   $0x636261,-0x49(%ebp)
  66:	c7 45 bb 00 00 00 00 	movl   $0x0,-0x45(%ebp)
  6d:	c7 45 bf 00 00 00 00 	movl   $0x0,-0x41(%ebp)
  74:	c7 45 c3 00 00 00 00 	movl   $0x0,-0x3d(%ebp)
  7b:	c6 45 c7 00          	movb   $0x0,-0x39(%ebp)
  7f:	83 ec 08             	sub    $0x8,%esp
  82:	ff 75 08             	pushl  0x8(%ebp)
  85:	8d 45 b7             	lea    -0x49(%ebp),%eax
  88:	50                   	push   %eax
  89:	e8 fc ff ff ff       	call   8a <test+0x8a>
  8e:	83 c4 10             	add    $0x10,%esp
  91:	83 ec 08             	sub    $0x8,%esp
  94:	8d 45 b7             	lea    -0x49(%ebp),%eax
  97:	50                   	push   %eax
  98:	68 00 00 00 00       	push   $0x0
  9d:	e8 fc ff ff ff       	call   9e <test+0x9e>
  a2:	83 c4 10             	add    $0x10,%esp
  a5:	90                   	nop
  a6:	c9                   	leave  
  a7:	c3                   	ret    

000000a8 <log_result>:
  a8:	55                   	push   %ebp
  a9:	89 e5                	mov    %esp,%ebp
  ab:	83 ec 18             	sub    $0x18,%esp
  ae:	83 ec 08             	sub    $0x8,%esp
  b1:	68 a4 01 00 00       	push   $0x1a4
  b6:	68 00 00 00 00       	push   $0x0
  bb:	e8 fc ff ff ff       	call   bc <log_result+0x14>
  c0:	83 c4 10             	add    $0x10,%esp
  c3:	89 45 f4             	mov    %eax,-0xc(%ebp)
  c6:	83 ec 0c             	sub    $0xc,%esp
  c9:	ff 75 f4             	pushl  -0xc(%ebp)
  cc:	e8 fc ff ff ff       	call   cd <log_result+0x25>
  d1:	83 c4 10             	add    $0x10,%esp
  d4:	90                   	nop
  d5:	c9                   	leave  
  d6:	c3                   	ret    

000000d7 <log_result_advanced>:
  d7:	55                   	push   %ebp
  d8:	89 e5                	mov    %esp,%ebp
  da:	83 ec 78             	sub    $0x78,%esp
  dd:	81 7d 08 de ad be ef 	cmpl   $0xefbeadde,0x8(%ebp)
  e4:	75 58                	jne    13e <log_result_advanced+0x67>
  e6:	e8 fc ff ff ff       	call   e7 <log_result_advanced+0x10>
  eb:	89 45 f4             	mov    %eax,-0xc(%ebp)
  ee:	83 ec 04             	sub    $0x4,%esp
  f1:	ff 75 f4             	pushl  -0xc(%ebp)
  f4:	68 14 00 00 00       	push   $0x14
  f9:	8d 45 8c             	lea    -0x74(%ebp),%eax
  fc:	50                   	push   %eax
  fd:	e8 fc ff ff ff       	call   fe <log_result_advanced+0x27>
 102:	83 c4 10             	add    $0x10,%esp
 105:	83 ec 08             	sub    $0x8,%esp
 108:	8d 45 8c             	lea    -0x74(%ebp),%eax
 10b:	50                   	push   %eax
 10c:	68 2a 00 00 00       	push   $0x2a
 111:	e8 fc ff ff ff       	call   112 <log_result_advanced+0x3b>
 116:	83 c4 10             	add    $0x10,%esp
 119:	83 ec 08             	sub    $0x8,%esp
 11c:	68 a4 01 00 00       	push   $0x1a4
 121:	8d 45 8c             	lea    -0x74(%ebp),%eax
 124:	50                   	push   %eax
 125:	e8 fc ff ff ff       	call   126 <log_result_advanced+0x4f>
 12a:	83 c4 10             	add    $0x10,%esp
 12d:	89 45 f0             	mov    %eax,-0x10(%ebp)
 130:	83 ec 0c             	sub    $0xc,%esp
 133:	ff 75 f0             	pushl  -0x10(%ebp)
 136:	e8 fc ff ff ff       	call   137 <log_result_advanced+0x60>
 13b:	83 c4 10             	add    $0x10,%esp
 13e:	90                   	nop
 13f:	c9                   	leave  
 140:	c3                   	ret    

00000141 <main>:
 141:	8d 4c 24 04          	lea    0x4(%esp),%ecx
 145:	83 e4 f0             	and    $0xfffffff0,%esp
 148:	ff 71 fc             	pushl  -0x4(%ecx)
 14b:	55                   	push   %ebp
 14c:	89 e5                	mov    %esp,%ebp
 14e:	53                   	push   %ebx
 14f:	51                   	push   %ecx
 150:	83 ec 10             	sub    $0x10,%esp
 153:	89 cb                	mov    %ecx,%ebx
 155:	83 3b 01             	cmpl   $0x1,(%ebx)
 158:	7e 4b                	jle    1a5 <main+0x64>
 15a:	e8 fc ff ff ff       	call   15b <main+0x1a>
 15f:	89 45 f4             	mov    %eax,-0xc(%ebp)
 162:	83 ec 04             	sub    $0x4,%esp
 165:	ff 75 f4             	pushl  -0xc(%ebp)
 168:	68 39 00 00 00       	push   $0x39
 16d:	68 00 00 00 00       	push   $0x0
 172:	e8 fc ff ff ff       	call   173 <main+0x32>
 177:	83 c4 10             	add    $0x10,%esp
 17a:	83 ec 08             	sub    $0x8,%esp
 17d:	68 00 00 00 00       	push   $0x0
 182:	68 2a 00 00 00       	push   $0x2a
 187:	e8 fc ff ff ff       	call   188 <main+0x47>
 18c:	83 c4 10             	add    $0x10,%esp
 18f:	8b 43 04             	mov    0x4(%ebx),%eax
 192:	83 c0 04             	add    $0x4,%eax
 195:	8b 00                	mov    (%eax),%eax
 197:	83 ec 0c             	sub    $0xc,%esp
 19a:	50                   	push   %eax
 19b:	e8 fc ff ff ff       	call   19c <main+0x5b>
 1a0:	83 c4 10             	add    $0x10,%esp
 1a3:	eb 10                	jmp    1b5 <main+0x74>
 1a5:	83 ec 0c             	sub    $0xc,%esp
 1a8:	68 48 00 00 00       	push   $0x48
 1ad:	e8 fc ff ff ff       	call   1ae <main+0x6d>
 1b2:	83 c4 10             	add    $0x10,%esp
 1b5:	83 ec 0c             	sub    $0xc,%esp
 1b8:	6a 00                	push   $0x0
 1ba:	e8 fc ff ff ff       	call   1bb <main+0x7a>

000001bf <function_pointer_function>:
 1bf:	55                   	push   %ebp
 1c0:	89 e5                	mov    %esp,%ebp
 1c2:	83 ec 08             	sub    $0x8,%esp
 1c5:	83 ec 08             	sub    $0x8,%esp
 1c8:	68 6c 00 00 00       	push   $0x6c
 1cd:	68 94 00 00 00       	push   $0x94
 1d2:	e8 fc ff ff ff       	call   1d3 <function_pointer_function+0x14>
 1d7:	83 c4 10             	add    $0x10,%esp
 1da:	8b 45 08             	mov    0x8(%ebp),%eax
 1dd:	ff d0                	call   *%eax
 1df:	90                   	nop
 1e0:	c9                   	leave  
 1e1:	c3                   	ret    

000001e2 <shell_function>:
 1e2:	55                   	push   %ebp
 1e3:	89 e5                	mov    %esp,%ebp
 1e5:	83 ec 08             	sub    $0x8,%esp
 1e8:	83 ec 08             	sub    $0x8,%esp
 1eb:	68 b5 00 00 00       	push   $0xb5
 1f0:	68 bf 00 00 00       	push   $0xbf
 1f5:	e8 fc ff ff ff       	call   1f6 <shell_function+0x14>
 1fa:	83 c4 10             	add    $0x10,%esp
 1fd:	83 ec 0c             	sub    $0xc,%esp
 200:	68 d5 00 00 00       	push   $0xd5
 205:	e8 fc ff ff ff       	call   206 <shell_function+0x24>
 20a:	83 c4 10             	add    $0x10,%esp
 20d:	90                   	nop
 20e:	c9                   	leave  
 20f:	c3                   	ret    
